ARM GAS  /var/folders/wm/cgcdtysd1h320c4wmhfz4d5w0000gn/T//ccopaxYK.s 			page 1


   1              		.cpu cortex-m7
   2              		.eabi_attribute 28, 1
   3              		.eabi_attribute 20, 1
   4              		.eabi_attribute 21, 1
   5              		.eabi_attribute 23, 3
   6              		.eabi_attribute 24, 1
   7              		.eabi_attribute 25, 1
   8              		.eabi_attribute 26, 1
   9              		.eabi_attribute 30, 2
  10              		.eabi_attribute 34, 1
  11              		.eabi_attribute 18, 4
  12              		.file	"scrubby.cpp"
  13              		.text
  14              		.section	.text._ZN5daisy8DaisyPodD2Ev,"axG",%progbits,_ZN5daisy8DaisyPodD5Ev,comdat
  15              		.align	1
  16              		.p2align 2,,3
  17              		.weak	_ZN5daisy8DaisyPodD2Ev
  18              		.arch armv7e-m
  19              		.syntax unified
  20              		.thumb
  21              		.thumb_func
  22              		.fpu fpv5-d16
  24              	_ZN5daisy8DaisyPodD2Ev:
  25              		@ args = 0, pretend = 0, frame = 0
  26              		@ frame_needed = 0, uses_anonymous_args = 0
  27              		@ link register save eliminated.
  28 0000 7047     		bx	lr
  30              		.weak	_ZN5daisy8DaisyPodD1Ev
  31              		.thumb_set _ZN5daisy8DaisyPodD1Ev,_ZN5daisy8DaisyPodD2Ev
  32 0002 00BF     		.section	.text._ZN7daisysp3PanD2Ev,"axG",%progbits,_ZN7daisysp3PanD5Ev,comdat
  33              		.align	1
  34              		.p2align 2,,3
  35              		.weak	_ZN7daisysp3PanD2Ev
  36              		.syntax unified
  37              		.thumb
  38              		.thumb_func
  39              		.fpu fpv5-d16
  41              	_ZN7daisysp3PanD2Ev:
  42              		@ args = 0, pretend = 0, frame = 0
  43              		@ frame_needed = 0, uses_anonymous_args = 0
  44              		@ link register save eliminated.
  45 0000 7047     		bx	lr
  47              		.weak	_ZN7daisysp3PanD1Ev
  48              		.thumb_set _ZN7daisysp3PanD1Ev,_ZN7daisysp3PanD2Ev
  49 0002 00BF     		.section	.text._ZN6BufferD2Ev,"axG",%progbits,_ZN6BufferD5Ev,comdat
  50              		.align	1
  51              		.p2align 2,,3
  52              		.weak	_ZN6BufferD2Ev
  53              		.syntax unified
  54              		.thumb
  55              		.thumb_func
  56              		.fpu fpv5-d16
  58              	_ZN6BufferD2Ev:
  59              		@ args = 0, pretend = 0, frame = 0
  60              		@ frame_needed = 0, uses_anonymous_args = 0
  61              		@ link register save eliminated.
  62 0000 7047     		bx	lr
ARM GAS  /var/folders/wm/cgcdtysd1h320c4wmhfz4d5w0000gn/T//ccopaxYK.s 			page 2


  64              		.weak	_ZN6BufferD1Ev
  65              		.thumb_set _ZN6BufferD1Ev,_ZN6BufferD2Ev
  66 0002 00BF     		.section	.text.__tcf_0,"ax",%progbits
  67              		.align	1
  68              		.p2align 2,,3
  69              		.syntax unified
  70              		.thumb
  71              		.thumb_func
  72              		.fpu fpv5-d16
  74              	__tcf_0:
  75              		@ args = 0, pretend = 0, frame = 0
  76              		@ frame_needed = 0, uses_anonymous_args = 0
  77              		@ link register save eliminated.
  78 0000 7047     		bx	lr
  80 0002 00BF     		.section	.text.startup.main,"ax",%progbits
  81              		.align	1
  82              		.p2align 2,,3
  83              		.global	main
  84              		.syntax unified
  85              		.thumb
  86              		.thumb_func
  87              		.fpu fpv5-d16
  89              	main:
  90              		@ args = 0, pretend = 0, frame = 0
  91              		@ frame_needed = 0, uses_anonymous_args = 0
  92 0000 F8B5     		push	{r3, r4, r5, r6, r7, lr}
  93 0002 1948     		ldr	r0, .L11
  94 0004 0025     		movs	r5, #0
  95 0006 194E     		ldr	r6, .L11+4
  96 0008 194F     		ldr	r7, .L11+8
  97 000a 3446     		mov	r4, r6
  98 000c 2DED028B 		vpush.64	{d8}
  99 0010 FFF7FEFF 		bl	_ZN5daisy8DaisyPod4InitEv
 100 0014 1448     		ldr	r0, .L11
 101 0016 FFF7FEFF 		bl	_ZN5daisy8DaisyPod8StartAdcEv
 102 001a 1649     		ldr	r1, .L11+12
 103 001c 1248     		ldr	r0, .L11
 104 001e FFF7FEFF 		bl	_ZN5daisy8DaisyPod10StartAudioEPFvPfS1_jE
 105 0022 1148     		ldr	r0, .L11
 106 0024 FFF7FEFF 		bl	_ZN5daisy8DaisyPod15AudioSampleRateEv
 107 0028 B0EE408A 		vmov.f32	s16, s0
 108 002c 124B     		ldr	r3, .L11+16
 109 002e 134A     		ldr	r2, .L11+20
 110 0030 1349     		ldr	r1, .L11+24
 111 0032 1448     		ldr	r0, .L11+28
 112 0034 FFF7FEFF 		bl	_ZN6Buffer4InitEPfS0_i
 113 0038 BDEEC88A 		vcvt.s32.f32	s16, s16
 114 003c 0223     		movs	r3, #2
 115 003e 3B60     		str	r3, [r7]
 116              	.L7:
 117 0040 2046     		mov	r0, r4
 118 0042 114A     		ldr	r2, .L11+32
 119 0044 18EE101A 		vmov	r1, s16	@ int
 120 0048 0135     		adds	r5, r5, #1
 121 004a FFF7FEFF 		bl	_ZN7daisysp5Voice4InitEii
 122 004e 3B68     		ldr	r3, [r7]
 123 0050 04F50034 		add	r4, r4, #131072
ARM GAS  /var/folders/wm/cgcdtysd1h320c4wmhfz4d5w0000gn/T//ccopaxYK.s 			page 3


 124 0054 AB42     		cmp	r3, r5
 125 0056 04F1D404 		add	r4, r4, #212
 126 005a F1DC     		bgt	.L7
 127 005c 0B4A     		ldr	r2, .L11+36
 128 005e 0021     		movs	r1, #0
 129 0060 0123     		movs	r3, #1
 130 0062 1160     		str	r1, [r2]
 131 0064 3375     		strb	r3, [r6, #20]
 132              	.L8:
 133 0066 FEE7     		b	.L8
 134              	.L12:
 135              		.align	2
 136              	.L11:
 137 0068 00000000 		.word	.LANCHOR0
 138 006c 00000000 		.word	Voices
 139 0070 00000000 		.word	.LANCHOR2
 140 0074 00000000 		.word	_ZL13AudioCallbackPfS_j
 141 0078 80320200 		.word	144000
 142 007c 00000000 		.word	swap_buf
 143 0080 00000000 		.word	buf
 144 0084 00000000 		.word	.LANCHOR1
 145 0088 00770100 		.word	96000
 146 008c 00000000 		.word	.LANCHOR3
 148              		.section	.text._Z13UpdateButtonsv,"ax",%progbits
 149              		.align	1
 150              		.p2align 2,,3
 151              		.global	_Z13UpdateButtonsv
 152              		.syntax unified
 153              		.thumb
 154              		.thumb_func
 155              		.fpu fpv5-d16
 157              	_Z13UpdateButtonsv:
 158              		@ args = 0, pretend = 0, frame = 0
 159              		@ frame_needed = 0, uses_anonymous_args = 0
 160              		@ link register save eliminated.
 161 0000 064B     		ldr	r3, .L16
 162 0002 93F8CD30 		ldrb	r3, [r3, #205]	@ zero_extendqisi2
 163 0006 7F2B     		cmp	r3, #127
 164 0008 00D0     		beq	.L15
 165              	.L13:
 166 000a 7047     		bx	lr
 167              	.L15:
 168 000c 044B     		ldr	r3, .L16+4
 169 000e 5A7A     		ldrb	r2, [r3, #9]	@ zero_extendqisi2
 170 0010 002A     		cmp	r2, #0
 171 0012 FAD1     		bne	.L13
 172 0014 4FF48072 		mov	r2, #256
 173 0018 1A81     		strh	r2, [r3, #8]	@ movhi
 174 001a 7047     		bx	lr
 175              	.L17:
 176              		.align	2
 177              	.L16:
 178 001c 00000000 		.word	.LANCHOR0
 179 0020 00000000 		.word	.LANCHOR1
 181              		.section	.text._Z13UpdateEncoderv,"ax",%progbits
 182              		.align	1
 183              		.p2align 2,,3
ARM GAS  /var/folders/wm/cgcdtysd1h320c4wmhfz4d5w0000gn/T//ccopaxYK.s 			page 4


 184              		.global	_Z13UpdateEncoderv
 185              		.syntax unified
 186              		.thumb
 187              		.thumb_func
 188              		.fpu fpv5-d16
 190              	_Z13UpdateEncoderv:
 191              		@ args = 0, pretend = 0, frame = 0
 192              		@ frame_needed = 0, uses_anonymous_args = 0
 193 0000 124B     		ldr	r3, .L21
 194 0002 70B5     		push	{r4, r5, r6, lr}
 195 0004 93F85D30 		ldrb	r3, [r3, #93]	@ zero_extendqisi2
 196 0008 7F2B     		cmp	r3, #127
 197 000a 13D1     		bne	.L19
 198 000c 1048     		ldr	r0, .L21+4
 199 000e 0026     		movs	r6, #0
 200 0010 104B     		ldr	r3, .L21+8
 201 0012 0268     		ldr	r2, [r0]
 202 0014 1B68     		ldr	r3, [r3]
 203 0016 551C     		adds	r5, r2, #1
 204 0018 0F4C     		ldr	r4, .L21+12
 205 001a 95FBF3F1 		sdiv	r1, r5, r3
 206 001e 03FB1151 		mls	r1, r3, r1, r5
 207 0022 0E4B     		ldr	r3, .L21+16
 208 0024 0125     		movs	r5, #1
 209 0026 03FB0242 		mla	r2, r3, r2, r4
 210 002a 03FB0143 		mla	r3, r3, r1, r4
 211 002e 1675     		strb	r6, [r2, #20]
 212 0030 0160     		str	r1, [r0]
 213 0032 1D75     		strb	r5, [r3, #20]
 214              	.L19:
 215 0034 9FED0A0A 		vldr.32	s0, .L21+20
 216 0038 0748     		ldr	r0, .L21+12
 217 003a FFF7FEFF 		bl	_ZN7daisysp5Voice16SetTranspositionEf
 218 003e B9EE040A 		vmov.f32	s0, #-5.0e+0
 219 0042 0848     		ldr	r0, .L21+24
 220 0044 BDE87040 		pop	{r4, r5, r6, lr}
 221 0048 FFF7FEBF 		b	_ZN7daisysp5Voice16SetTranspositionEf
 222              	.L22:
 223              		.align	2
 224              	.L21:
 225 004c 00000000 		.word	.LANCHOR0
 226 0050 00000000 		.word	.LANCHOR3
 227 0054 00000000 		.word	.LANCHOR2
 228 0058 00000000 		.word	Voices
 229 005c D4000200 		.word	131284
 230 0060 00000000 		.word	0
 231 0064 D4000200 		.word	Voices+131284
 233              		.section	.text._Z8Controlsv,"ax",%progbits
 234              		.align	1
 235              		.p2align 2,,3
 236              		.global	_Z8Controlsv
 237              		.syntax unified
 238              		.thumb
 239              		.thumb_func
 240              		.fpu fpv5-d16
 242              	_Z8Controlsv:
 243              		@ args = 0, pretend = 0, frame = 0
ARM GAS  /var/folders/wm/cgcdtysd1h320c4wmhfz4d5w0000gn/T//ccopaxYK.s 			page 5


 244              		@ frame_needed = 0, uses_anonymous_args = 0
 245 0000 38B5     		push	{r3, r4, r5, lr}
 246 0002 3348     		ldr	r0, .L40
 247 0004 2DED028B 		vpush.64	{d8}
 248 0008 FFF7FEFF 		bl	_ZN5daisy8DaisyPod20UpdateAnalogControlsEv
 249 000c 3048     		ldr	r0, .L40
 250 000e FFF7FEFF 		bl	_ZN5daisy8DaisyPod16DebounceControlsEv
 251 0012 3048     		ldr	r0, .L40+4
 252 0014 FFF7FEFF 		bl	_ZN5daisy13AnalogControl7ProcessEv
 253 0018 2F48     		ldr	r0, .L40+8
 254 001a B0EE408A 		vmov.f32	s16, s0
 255 001e FFF7FEFF 		bl	_ZN5daisy13AnalogControl7ProcessEv
 256 0022 2E4B     		ldr	r3, .L40+12
 257 0024 1868     		ldr	r0, [r3]
 258 0026 0028     		cmp	r0, #0
 259 0028 2CDD     		ble	.L24
 260 002a DFED2D7A 		vldr.32	s15, .L40+16
 261 002e 9FED2D7A 		vldr.32	s14, .L40+20
 262 0032 F0EE675A 		vmov.f32	s11, s15
 263 0036 9FED2C6A 		vldr.32	s12, .L40+24
 264 003a 2C4C     		ldr	r4, .L40+28
 265 003c E0EE067A 		vfma.f32	s15, s0, s12
 266 0040 2B49     		ldr	r1, .L40+32
 267 0042 E8EE075A 		vfma.f32	s11, s16, s14
 268 0046 0D7D     		ldrb	r5, [r1, #20]	@ zero_extendqisi2
 269 0048 FDEEE77A 		vcvt.s32.f32	s15, s15
 270 004c BDEEE57A 		vcvt.s32.f32	s14, s11
 271 0050 17EE903A 		vmov	r3, s15	@ int
 272 0054 17EE102A 		vmov	r2, s14	@ int
 273 0058 A242     		cmp	r2, r4
 274 005a A8BF     		it	ge
 275 005c 2246     		movge	r2, r4
 276 005e A342     		cmp	r3, r4
 277 0060 A8BF     		it	ge
 278 0062 2346     		movge	r3, r4
 279 0064 22EAE272 		bic	r2, r2, r2, asr #31
 280 0068 23EAE373 		bic	r3, r3, r3, asr #31
 281 006c 0DB1     		cbz	r5, .L25
 282 006e 8A60     		str	r2, [r1, #8]
 283 0070 0B60     		str	r3, [r1]
 284              	.L25:
 285 0072 0128     		cmp	r0, #1
 286 0074 06D0     		beq	.L24
 287 0076 1F48     		ldr	r0, .L40+36
 288 0078 085C     		ldrb	r0, [r1, r0]	@ zero_extendqisi2
 289 007a 18B1     		cbz	r0, .L24
 290 007c 1E4C     		ldr	r4, .L40+40
 291 007e 1F48     		ldr	r0, .L40+44
 292 0080 0A51     		str	r2, [r1, r4]
 293 0082 0B50     		str	r3, [r1, r0]
 294              	.L24:
 295 0084 124B     		ldr	r3, .L40
 296 0086 1E4C     		ldr	r4, .L40+48
 297 0088 93F8CD30 		ldrb	r3, [r3, #205]	@ zero_extendqisi2
 298 008c 7F2B     		cmp	r3, #127
 299 008e 17D0     		beq	.L38
 300              	.L27:
ARM GAS  /var/folders/wm/cgcdtysd1h320c4wmhfz4d5w0000gn/T//ccopaxYK.s 			page 6


 301 0090 FFF7FEFF 		bl	_Z13UpdateEncoderv
 302 0094 237A     		ldrb	r3, [r4, #8]	@ zero_extendqisi2
 303 0096 1B48     		ldr	r0, .L40+52
 304 0098 00EE903A 		vmov	s1, r3	@ int
 305 009c 637A     		ldrb	r3, [r4, #9]	@ zero_extendqisi2
 306 009e 9FED101A 		vldr.32	s2, .L40+16
 307 00a2 00EE103A 		vmov	s0, r3	@ int
 308 00a6 F8EE600A 		vcvt.f32.u32	s1, s1
 309 00aa B8EE400A 		vcvt.f32.u32	s0, s0
 310 00ae FFF7FEFF 		bl	_ZN5daisy6RgbLed3SetEfff
 311 00b2 0748     		ldr	r0, .L40
 312 00b4 BDEC028B 		vldm	sp!, {d8}
 313 00b8 BDE83840 		pop	{r3, r4, r5, lr}
 314 00bc FFF7FEBF 		b	_ZN5daisy8DaisyPod10UpdateLedsEv
 315              	.L38:
 316 00c0 637A     		ldrb	r3, [r4, #9]	@ zero_extendqisi2
 317 00c2 002B     		cmp	r3, #0
 318 00c4 E4D1     		bne	.L27
 319 00c6 4FF48073 		mov	r3, #256
 320 00ca 2381     		strh	r3, [r4, #8]	@ movhi
 321 00cc E0E7     		b	.L27
 322              	.L41:
 323 00ce 00BF     		.align	2
 324              	.L40:
 325 00d0 00000000 		.word	.LANCHOR0
 326 00d4 78000000 		.word	.LANCHOR0+120
 327 00d8 94000000 		.word	.LANCHOR0+148
 328 00dc 00000000 		.word	.LANCHOR2
 329 00e0 00000000 		.word	0
 330 00e4 0080BB47 		.word	1203470336
 331 00e8 0080BB46 		.word	1186693120
 332 00ec 7F320200 		.word	143999
 333 00f0 00000000 		.word	Voices
 334 00f4 E8000200 		.word	131304
 335 00f8 DC000200 		.word	131292
 336 00fc D4000200 		.word	131284
 337 0100 00000000 		.word	.LANCHOR1
 338 0104 E0000000 		.word	.LANCHOR0+224
 340              		.section	.text._ZL13AudioCallbackPfS_j,"ax",%progbits
 341              		.align	1
 342              		.p2align 2,,3
 343              		.syntax unified
 344              		.thumb
 345              		.thumb_func
 346              		.fpu fpv5-d16
 348              	_ZL13AudioCallbackPfS_j:
 349              		@ args = 0, pretend = 0, frame = 24
 350              		@ frame_needed = 0, uses_anonymous_args = 0
 351 0000 2DE9F041 		push	{r4, r5, r6, r7, r8, lr}
 352 0004 1646     		mov	r6, r2
 353 0006 8046     		mov	r8, r0
 354 0008 0C46     		mov	r4, r1
 355 000a 2DED028B 		vpush.64	{d8}
 356 000e 86B0     		sub	sp, sp, #24
 357 0010 FFF7FEFF 		bl	_Z8Controlsv
 358 0014 002E     		cmp	r6, #0
 359 0016 47D0     		beq	.L42
ARM GAS  /var/folders/wm/cgcdtysd1h320c4wmhfz4d5w0000gn/T//ccopaxYK.s 			page 7


 360 0018 013E     		subs	r6, r6, #1
 361 001a 0025     		movs	r5, #0
 362 001c 254F     		ldr	r7, .L51
 363 001e 26F00106 		bic	r6, r6, #1
 364 0022 36E0     		b	.L46
 365              	.L44:
 366 0024 2349     		ldr	r1, .L51
 367 0026 0834     		adds	r4, r4, #8
 368 0028 2348     		ldr	r0, .L51+4
 369 002a FFF7FEFF 		bl	_ZN7daisysp5Voice10NextSampleER6Buffer
 370 002e 2149     		ldr	r1, .L51
 371 0030 2248     		ldr	r0, .L51+8
 372 0032 8DED010A 		vstr.32	s0, [sp, #4]	@ int
 373 0036 FFF7FEFF 		bl	_ZN7daisysp5Voice10NextSampleER6Buffer
 374 003a B0EE408A 		vmov.f32	s16, s0
 375 003e DDED010A 		vldr.32	s1, [sp, #4]	@ int
 376 0042 B5EE000A 		vmov.f32	s0, #2.5e-1
 377 0046 04AA     		add	r2, sp, #16
 378 0048 02A9     		add	r1, sp, #8
 379 004a 1D48     		ldr	r0, .L51+12
 380 004c FFF7FEFF 		bl	_ZN7daisysp3Pan7ProcessEffRfS1_
 381 0050 F0EE480A 		vmov.f32	s1, s16
 382 0054 05AA     		add	r2, sp, #20
 383 0056 03A9     		add	r1, sp, #12
 384 0058 1948     		ldr	r0, .L51+12
 385 005a B6EE080A 		vmov.f32	s0, #7.5e-1
 386 005e FFF7FEFF 		bl	_ZN7daisysp3Pan7ProcessEffRfS1_
 387 0062 DDED037A 		vldr.32	s15, [sp, #12]
 388 0066 9DED020A 		vldr.32	s0, [sp, #8]
 389 006a 30EE270A 		vadd.f32	s0, s0, s15
 390 006e FFF7FEFF 		bl	tanhf
 391 0072 9DED047A 		vldr.32	s14, [sp, #16]
 392 0076 DDED057A 		vldr.32	s15, [sp, #20]
 393 007a 04ED020A 		vstr.32	s0, [r4, #-8]
 394 007e 37EE270A 		vadd.f32	s0, s14, s15
 395 0082 FFF7FEFF 		bl	tanhf
 396 0086 AB1C     		adds	r3, r5, #2
 397 0088 AE42     		cmp	r6, r5
 398 008a 04ED010A 		vstr.32	s0, [r4, #-4]
 399 008e 1D46     		mov	r5, r3
 400 0090 0AD0     		beq	.L42
 401              	.L46:
 402 0092 7B7A     		ldrb	r3, [r7, #9]	@ zero_extendqisi2
 403 0094 002B     		cmp	r3, #0
 404 0096 C5D0     		beq	.L44
 405 0098 08EB8503 		add	r3, r8, r5, lsl #2
 406 009c 0548     		ldr	r0, .L51
 407 009e 93ED000A 		vldr.32	s0, [r3]
 408 00a2 FFF7FEFF 		bl	_ZN6Buffer5WriteEf
 409 00a6 BDE7     		b	.L44
 410              	.L42:
 411 00a8 06B0     		add	sp, sp, #24
 412              		@ sp needed
 413 00aa BDEC028B 		vldm	sp!, {d8}
 414 00ae BDE8F081 		pop	{r4, r5, r6, r7, r8, pc}
 415              	.L52:
 416 00b2 00BF     		.align	2
ARM GAS  /var/folders/wm/cgcdtysd1h320c4wmhfz4d5w0000gn/T//ccopaxYK.s 			page 8


 417              	.L51:
 418 00b4 00000000 		.word	.LANCHOR1
 419 00b8 00000000 		.word	Voices
 420 00bc D4000200 		.word	Voices+131284
 421 00c0 00000000 		.word	.LANCHOR4
 423              		.section	.text.startup._GLOBAL__sub_I_buf,"ax",%progbits
 424              		.align	1
 425              		.p2align 2,,3
 426              		.syntax unified
 427              		.thumb
 428              		.thumb_func
 429              		.fpu fpv5-d16
 431              	_GLOBAL__sub_I_buf:
 432              		@ args = 0, pretend = 0, frame = 0
 433              		@ frame_needed = 0, uses_anonymous_args = 0
 434 0000 08B5     		push	{r3, lr}
 435 0002 0B4A     		ldr	r2, .L55
 436 0004 0B49     		ldr	r1, .L55+4
 437 0006 0C48     		ldr	r0, .L55+8
 438 0008 FFF7FEFF 		bl	__aeabi_atexit
 439 000c 084A     		ldr	r2, .L55
 440 000e 0B49     		ldr	r1, .L55+12
 441 0010 0B48     		ldr	r0, .L55+16
 442 0012 FFF7FEFF 		bl	__aeabi_atexit
 443 0016 064A     		ldr	r2, .L55
 444 0018 0A49     		ldr	r1, .L55+20
 445 001a 0B48     		ldr	r0, .L55+24
 446 001c FFF7FEFF 		bl	__aeabi_atexit
 447 0020 034A     		ldr	r2, .L55
 448 0022 0A49     		ldr	r1, .L55+28
 449 0024 0020     		movs	r0, #0
 450 0026 BDE80840 		pop	{r3, lr}
 451 002a FFF7FEBF 		b	__aeabi_atexit
 452              	.L56:
 453 002e 00BF     		.align	2
 454              	.L55:
 455 0030 00000000 		.word	__dso_handle
 456 0034 00000000 		.word	_ZN5daisy8DaisyPodD1Ev
 457 0038 00000000 		.word	.LANCHOR0
 458 003c 00000000 		.word	_ZN7daisysp3PanD1Ev
 459 0040 00000000 		.word	.LANCHOR4
 460 0044 00000000 		.word	_ZN6BufferD1Ev
 461 0048 00000000 		.word	.LANCHOR1
 462 004c 00000000 		.word	__tcf_0
 464              		.section	.init_array,"aw",%init_array
 465              		.align	2
 466 0000 00000000 		.word	_GLOBAL__sub_I_buf(target1)
 467              		.global	Voices
 468              		.global	b
 469              		.global	active_voice
 470              		.global	voice_amt
 471              		.global	swap_buf
 472              		.global	buf
 473              		.section	.bss.Voices,"aw",%nobits
 474              		.align	2
 477              	Voices:
 478 0000 00000000 		.space	262568
ARM GAS  /var/folders/wm/cgcdtysd1h320c4wmhfz4d5w0000gn/T//ccopaxYK.s 			page 9


 478      00000000 
 478      00000000 
 478      00000000 
 478      00000000 
 479              		.section	.bss._ZL3pan,"aw",%nobits
 480              		.align	2
 481              		.set	.LANCHOR4,. + 0
 484              	_ZL3pan:
 485 0000 00       		.space	1
 486              		.section	.bss._ZL3pod,"aw",%nobits
 487              		.align	2
 488              		.set	.LANCHOR0,. + 0
 491              	_ZL3pod:
 492 0000 00000000 		.space	404
 492      00000000 
 492      00000000 
 492      00000000 
 492      00000000 
 493              		.section	.bss.active_voice,"aw",%nobits
 494              		.align	2
 495              		.set	.LANCHOR3,. + 0
 498              	active_voice:
 499 0000 00000000 		.space	4
 500              		.section	.bss.b,"aw",%nobits
 501              		.align	2
 502              		.set	.LANCHOR1,. + 0
 505              	b:
 506 0000 00000000 		.space	20
 506      00000000 
 506      00000000 
 506      00000000 
 506      00000000 
 507              		.section	.bss.voice_amt,"aw",%nobits
 508              		.align	2
 509              		.set	.LANCHOR2,. + 0
 512              	voice_amt:
 513 0000 00000000 		.space	4
 514              		.section	.sdram_bss,"aw"
 515              		.align	2
 518              	swap_buf:
 519 0000 00000000 		.space	576000
 519      00000000 
 519      00000000 
 519      00000000 
 519      00000000 
 522              	buf:
 523 8ca00 00000000 		.space	576000
 523      00000000 
 523      00000000 
 523      00000000 
 523      00000000 
 524              		.hidden	__dso_handle
 525              		.ident	"GCC: (GNU Tools for Arm Embedded Processors 9-2019-q4-major) 9.2.1 20191025 (release) [ARM
ARM GAS  /var/folders/wm/cgcdtysd1h320c4wmhfz4d5w0000gn/T//ccopaxYK.s 			page 10

